target datalayout = "e-m:e-p270:32:32-p271:32:32-p272:64:64-i64:64-i128:128-f80:128-n8:16:32:64-S128"
target triple = "x86_64-pc-linux-gnu"

%struct.mempacket_test_ctx_st = type { ptr, i16, i32, i32, i32, i32, i32, i32, i32, i32 }

@.str.1 = private unnamed_addr constant [37 x i8] c"../openssl/test/helpers/ssltestlib.c\00", align 1
@.str.110 = private unnamed_addr constant [35 x i8] c"ctx = OPENSSL_zalloc(sizeof(*ctx))\00", align 1
@.str.111 = private unnamed_addr constant [36 x i8] c"ctx->pkts = sk_MEMPACKET_new_null()\00", align 1

; Function Attrs: inlinehint nounwind uwtable
define internal ptr @sk_MEMPACKET_new_null() #3 {
  %1 = call ptr @OPENSSL_sk_new_null()
  ret ptr %1
}

; Function Attrs: nounwind uwtable
define internal i32 @mempacket_test_new(ptr noundef %0) #0 {
  %2 = alloca i32, align 4
  %3 = alloca ptr, align 8
  %4 = alloca ptr, align 8
  %5 = alloca i32, align 4
  store ptr %0, ptr %3, align 8, !tbaa !9
  call void @llvm.lifetime.start.p0(i64 8, ptr %4) #10
  %6 = call noalias ptr @CRYPTO_zalloc(i64 noundef 48, ptr noundef @.str.1, i32 noundef 318)
  store ptr %6, ptr %4, align 8, !tbaa !18
  %7 = call i32 @test_ptr(ptr noundef @.str.1, i32 noundef 318, ptr noundef @.str.110, ptr noundef %6)
  %8 = icmp ne i32 %7, 0
  br i1 %8, label %10, label %9

9:                                                ; preds = %1
  store i32 0, ptr %2, align 4
  store i32 1, ptr %5, align 4
  br label %26

10:                                               ; preds = %1
  %11 = call ptr @sk_MEMPACKET_new_null()
  %12 = load ptr, ptr %4, align 8, !tbaa !18
  %13 = getelementptr inbounds nuw %struct.mempacket_test_ctx_st, ptr %12, i32 0, i32 0
  store ptr %11, ptr %13, align 8, !tbaa !20
  %14 = call i32 @test_ptr(ptr noundef @.str.1, i32 noundef 320, ptr noundef @.str.111, ptr noundef %11)
  %15 = icmp ne i32 %14, 0
  br i1 %15, label %18, label %16

16:                                               ; preds = %10
  %17 = load ptr, ptr %4, align 8, !tbaa !18
  call void @CRYPTO_free(ptr noundef %17, ptr noundef @.str.1, i32 noundef 321)
  store i32 0, ptr %2, align 4
  store i32 1, ptr %5, align 4
  br label %26

18:                                               ; preds = %10
  %19 = load ptr, ptr %4, align 8, !tbaa !18
  %20 = getelementptr inbounds nuw %struct.mempacket_test_ctx_st, ptr %19, i32 0, i32 7
  store i32 0, ptr %20, align 8, !tbaa !39
  %21 = load ptr, ptr %4, align 8, !tbaa !18
  %22 = getelementptr inbounds nuw %struct.mempacket_test_ctx_st, ptr %21, i32 0, i32 8
  store i32 -1, ptr %22, align 4, !tbaa !32
  %23 = load ptr, ptr %3, align 8, !tbaa !9
  call void @BIO_set_init(ptr noundef %23, i32 noundef 1)
  %24 = load ptr, ptr %3, align 8, !tbaa !9
  %25 = load ptr, ptr %4, align 8, !tbaa !18
  call void @BIO_set_data(ptr noundef %24, ptr noundef %25)
  store i32 1, ptr %2, align 4
  store i32 1, ptr %5, align 4
  br label %26

26:                                               ; preds = %18, %16, %9
  call void @llvm.lifetime.end.p0(i64 8, ptr %4) #10
  %27 = load i32, ptr %2, align 4
  ret i32 %27
}