; Function Attrs: nounwind uwtable
define internal range(i32 0, 2) i32 @mempacket_test_new(ptr noundef %0) #0 {
  %2 = tail call noalias ptr @CRYPTO_zalloc(i64 noundef 48, ptr noundef nonnull @.str.1, i32 noundef 318) #14
  %3 = tail call i32 @test_ptr(ptr noundef nonnull @.str.1, i32 noundef 318, ptr noundef nonnull @.str.110, ptr noundef %2) #14
  %.not = icmp eq i32 %3, 0
  br i1 %.not, label %11, label %4

4:                                                ; preds = %1
  %5 = tail call ptr @OPENSSL_sk_new_null() #14
  store ptr %5, ptr %2, align 8, !tbaa !15
  %6 = tail call i32 @test_ptr(ptr noundef nonnull @.str.1, i32 noundef 320, ptr noundef nonnull @.str.111, ptr noundef %5) #14
  %.not7 = icmp eq i32 %6, 0
  br i1 %.not7, label %7, label %8

7:                                                ; preds = %4
  tail call void @CRYPTO_free(ptr noundef nonnull %2, ptr noundef nonnull @.str.1, i32 noundef 321) #14
  br label %11

8:                                                ; preds = %4
  %9 = getelementptr inbounds nuw i8, ptr %2, i64 32
  store i32 0, ptr %9, align 8, !tbaa !32
  %10 = getelementptr inbounds nuw i8, ptr %2, i64 36
  store i32 -1, ptr %10, align 4, !tbaa !27
  tail call void @BIO_set_init(ptr noundef %0, i32 noundef 1) #14
  tail call void @BIO_set_data(ptr noundef %0, ptr noundef nonnull %2) #14
  br label %11

11:                                               ; preds = %1, %8, %7
  %.0 = phi i32 [ 1, %8 ], [ 0, %7 ], [ 0, %1 ]
  ret i32 %.0
}